target datalayout = "e-m:e-p270:32:32-p271:32:32-p272:64:64-i64:64-i128:128-f80:128-n8:16:32:64-S128"
target triple = "x86_64-pc-linux-gnu"

%struct.CVodeMemRec = type { ptr, double, ptr, ptr, i32, i32, double, double, ptr, i32, i32, ptr, ptr, i32, i32, ptr, i32, i32, double, double, ptr, i32, i32, i32, i32, ptr, ptr, ptr, i32, i32, ptr, ptr, ptr, i32, double, i32, i32, double, ptr, ptr, ptr, i32, ptr, ptr, i32, i32, i32, double, ptr, ptr, ptr, [13 x ptr], ptr, ptr, ptr, ptr, ptr, ptr, ptr, ptr, ptr, [13 x ptr], ptr, ptr, ptr, ptr, [13 x ptr], ptr, ptr, ptr, ptr, ptr, i32, [13 x ptr], ptr, ptr, ptr, ptr, ptr, i32, i32, double, i32, i32, i32, i32, i32, double, double, double, double, double, double, double, double, [14 x double], [6 x double], [13 x double], double, double, double, double, double, double, double, double, i32, double, double, i32, double, double, ptr, i32, i64, i32, i32, i32, double, double, double, double, double, double, double, double, double, double, double, double, i64, i32, i64, i64, i64, i64, i64, i64, i64, i64, i64, ptr, i64, i64, ptr, i64, i64, ptr, i64, i64, i64, i64, i64, i64, i32, double, double, double, i64, i64, i64, i64, i64, i64, ptr, i32, ptr, i32, ptr, i32, ptr, i32, i32, i64, i32, ptr, i32, ptr, ptr, ptr, ptr, ptr, ptr, i32, i32, ptr, ptr, ptr, ptr, ptr, i64, double, i32, i32, i64, double, double, double, i32, i32, double, i32, i32, i32, i32, i32, i32, i32, i32, i32, i32, i32, i32, i32, i32, i32, i32, ptr, i64, i32, [6 x [4 x double]], i32, i64, ptr, i32, ptr, ptr, double, double, double, ptr, ptr, ptr, double, double, i32, i32, i64, ptr, i32, ptr, i32, i32, [13 x double], ptr, ptr, ptr, i32, ptr, i32 }
%struct.CVadjMemRec = type { double, double, i32, i32, double, i32, double, ptr, i32, ptr, i32, ptr, i32, ptr, i64, i64, ptr, i64, i32, ptr, ptr, ptr, ptr, i32, i32, i32, i32, [13 x ptr], [13 x ptr], [13 x double], ptr, ptr }
%struct.CVodeBMemRec = type { i32, double, ptr, i32, i32, ptr, ptr, ptr, ptr, ptr, ptr, ptr, ptr, ptr, double, ptr, ptr }

@.str = private unnamed_addr constant [118 x i8] c"generated/home/dtcxzyw/WorkSpace/Projects/compilers/llvm-opt-benchmark/bench/sundials/sundials/src/cvodes/cvodea_io.c\00", align 1
@.str.1 = private unnamed_addr constant [26 x i8] c"cvode_mem = NULL illegal.\00", align 1
@.str.2 = private unnamed_addr constant [55 x i8] c"Illegal attempt to call before calling CVodeAdjMalloc.\00", align 1
@__func__.CVodeSetNonlinearSolverB = private unnamed_addr constant [25 x i8] c"CVodeSetNonlinearSolverB\00", align 1
@.str.3 = private unnamed_addr constant [25 x i8] c"Illegal value for which.\00", align 1

; Function Attrs: nounwind uwtable
define i32 @CVodeSetNonlinearSolverB(ptr noundef %0, i32 noundef %1, ptr noundef %2) #0 {
  %4 = alloca i32, align 4
  %5 = alloca ptr, align 8
  %6 = alloca i32, align 4
  %7 = alloca ptr, align 8
  %8 = alloca ptr, align 8
  %9 = alloca ptr, align 8
  %10 = alloca ptr, align 8
  %11 = alloca ptr, align 8
  store ptr %0, ptr %5, align 8
  store i32 %1, ptr %6, align 4
  store ptr %2, ptr %7, align 8
  %12 = load ptr, ptr %5, align 8
  %13 = icmp eq ptr %12, null
  br i1 %13, label %14, label %15

14:                                               ; preds = %3
  call void (ptr, i32, i32, ptr, ptr, ptr, ...) @cvProcessError(ptr noundef null, i32 noundef -21, i32 noundef 97, ptr noundef @__func__.CVodeSetNonlinearSolverB, ptr noundef @.str, ptr noundef @.str.1)
  store i32 -21, ptr %4, align 4
  br label %59

15:                                               ; preds = %3
  %16 = load ptr, ptr %5, align 8
  store ptr %16, ptr %8, align 8
  %17 = load ptr, ptr %8, align 8
  %18 = getelementptr inbounds %struct.CVodeMemRec, ptr %17, i32 0, i32 249
  %19 = load i32, ptr %18, align 8
  %20 = icmp eq i32 %19, 0
  br i1 %20, label %21, label %23

21:                                               ; preds = %15
  %22 = load ptr, ptr %8, align 8
  call void (ptr, i32, i32, ptr, ptr, ptr, ...) @cvProcessError(ptr noundef %22, i32 noundef -101, i32 noundef 105, ptr noundef @__func__.CVodeSetNonlinearSolverB, ptr noundef @.str, ptr noundef @.str.2)
  store i32 -101, ptr %4, align 4
  br label %59

23:                                               ; preds = %15
  %24 = load ptr, ptr %8, align 8
  %25 = getelementptr inbounds %struct.CVodeMemRec, ptr %24, i32 0, i32 248
  %26 = load ptr, ptr %25, align 8
  store ptr %26, ptr %9, align 8
  %27 = load i32, ptr %6, align 4
  %28 = load ptr, ptr %9, align 8
  %29 = getelementptr inbounds %struct.CVadjMemRec, ptr %28, i32 0, i32 8
  %30 = load i32, ptr %29, align 8
  %31 = icmp sge i32 %27, %30
  br i1 %31, label %32, label %34

32:                                               ; preds = %23
  %33 = load ptr, ptr %8, align 8
  call void (ptr, i32, i32, ptr, ptr, ptr, ...) @cvProcessError(ptr noundef %33, i32 noundef -22, i32 noundef 113, ptr noundef @__func__.CVodeSetNonlinearSolverB, ptr noundef @.str, ptr noundef @.str.3)
  store i32 -22, ptr %4, align 4
  br label %59

34:                                               ; preds = %23
  %35 = load ptr, ptr %9, align 8
  %36 = getelementptr inbounds %struct.CVadjMemRec, ptr %35, i32 0, i32 7
  %37 = load ptr, ptr %36, align 8
  store ptr %37, ptr %10, align 8
  br label %38

38:                                               ; preds = %48, %34
  %39 = load ptr, ptr %10, align 8
  %40 = icmp ne ptr %39, null
  br i1 %40, label %41, label %52

41:                                               ; preds = %38
  %42 = load i32, ptr %6, align 4
  %43 = load ptr, ptr %10, align 8
  %44 = getelementptr inbounds %struct.CVodeBMemRec, ptr %43, i32 0, i32 0
  %45 = load i32, ptr %44, align 8
  %46 = icmp eq i32 %42, %45
  br i1 %46, label %47, label %48

47:                                               ; preds = %41
  br label %52

48:                                               ; preds = %41
  %49 = load ptr, ptr %10, align 8
  %50 = getelementptr inbounds %struct.CVodeBMemRec, ptr %49, i32 0, i32 16
  %51 = load ptr, ptr %50, align 8
  store ptr %51, ptr %10, align 8
  br label %38

52:                                               ; preds = %47, %38
  %53 = load ptr, ptr %10, align 8
  %54 = getelementptr inbounds %struct.CVodeBMemRec, ptr %53, i32 0, i32 2
  %55 = load ptr, ptr %54, align 8
  store ptr %55, ptr %11, align 8
  %56 = load ptr, ptr %11, align 8
  %57 = load ptr, ptr %7, align 8
  %58 = call i32 @CVodeSetNonlinearSolver(ptr noundef %56, ptr noundef %57)
  store i32 %58, ptr %4, align 4
  br label %59

59:                                               ; preds = %52, %32, %21, %14
  %60 = load i32, ptr %4, align 4
  ret i32 %60
}